
fib:     file format elf32-tradlittlemips

Disassembly of section IROM:

00400000 <__start>:
  400000:	3c1c1001 	lui	gp,0x1001
  400004:	279c8010 	addiu	gp,gp,-32752
  400008:	3c1d7fff 	lui	sp,0x7fff
  40000c:	37bdfffc 	ori	sp,sp,0xfffc
  400010:	0000d020 	add	k0,zero,zero
  400014:	00001820 	add	v1,zero,zero
  400018:	0c100143 	jal	40050c <runme>
  40001c:	00000000 	nop

00400020 <__start_loop>:
	...
  400028:	0c100008 	jal	400020 <__start_loop>
  40002c:	00000000 	nop

00400030 <print>:
  400030:	27bdffe8 	addiu	sp,sp,-24
  400034:	afbf0014 	sw	ra,20(sp)
  400038:	afbe0010 	sw	s8,16(sp)
  40003c:	03a0f021 	move	s8,sp
  400040:	afc40018 	sw	a0,24(s8)
  400044:	8fc20018 	lw	v0,24(s8)
  400048:	00000000 	nop
  40004c:	80420000 	lb	v0,0(v0)
  400050:	00000000 	nop
  400054:	1040000e 	beqz	v0,400090 <print+0x60>
  400058:	00000000 	nop
  40005c:	8fc20018 	lw	v0,24(s8)
  400060:	00000000 	nop
  400064:	80420000 	lb	v0,0(v0)
  400068:	00000000 	nop
  40006c:	00402021 	move	a0,v0
  400070:	0c10014f 	jal	40053c <SendByte>
  400074:	00000000 	nop
  400078:	8fc20018 	lw	v0,24(s8)
  40007c:	00000000 	nop
  400080:	24420001 	addiu	v0,v0,1
  400084:	afc20018 	sw	v0,24(s8)
  400088:	08100011 	j	400044 <print+0x14>
  40008c:	00000000 	nop
  400090:	03c0e821 	move	sp,s8
  400094:	8fbf0014 	lw	ra,20(sp)
  400098:	8fbe0010 	lw	s8,16(sp)
  40009c:	27bd0018 	addiu	sp,sp,24
  4000a0:	03e00008 	jr	ra
  4000a4:	00000000 	nop

004000a8 <fib>:
  4000a8:	27bdffb0 	addiu	sp,sp,-80
  4000ac:	afbf004c 	sw	ra,76(sp)
  4000b0:	afbe0048 	sw	s8,72(sp)
  4000b4:	03a0f021 	move	s8,sp
  4000b8:	afc40050 	sw	a0,80(s8)
  4000bc:	afc00010 	sw	zero,16(s8)
  4000c0:	24020001 	li	v0,1
  4000c4:	afc20014 	sw	v0,20(s8)
  4000c8:	8fc20050 	lw	v0,80(s8)
  4000cc:	00000000 	nop
  4000d0:	afc2001c 	sw	v0,28(s8)
  4000d4:	8fc2001c 	lw	v0,28(s8)
  4000d8:	00000000 	nop
  4000dc:	1840001b 	blez	v0,40014c <fib+0xa4>
  4000e0:	00000000 	nop
  4000e4:	27c20028 	addiu	v0,s8,40
  4000e8:	8fc40010 	lw	a0,16(s8)
  4000ec:	00402821 	move	a1,v0
  4000f0:	2406000a 	li	a2,10
  4000f4:	0c1000ef 	jal	4003bc <int_to_string>
  4000f8:	00000000 	nop
  4000fc:	00402021 	move	a0,v0
  400100:	0c10000c 	jal	400030 <print>
  400104:	00000000 	nop
  400108:	8fc30010 	lw	v1,16(s8)
  40010c:	8fc20014 	lw	v0,20(s8)
  400110:	00000000 	nop
  400114:	00621021 	addu	v0,v1,v0
  400118:	afc20018 	sw	v0,24(s8)
  40011c:	8fc20014 	lw	v0,20(s8)
  400120:	00000000 	nop
  400124:	afc20010 	sw	v0,16(s8)
  400128:	8fc20018 	lw	v0,24(s8)
  40012c:	00000000 	nop
  400130:	afc20014 	sw	v0,20(s8)
  400134:	8fc2001c 	lw	v0,28(s8)
  400138:	00000000 	nop
  40013c:	2442ffff 	addiu	v0,v0,-1
  400140:	afc2001c 	sw	v0,28(s8)
  400144:	08100035 	j	4000d4 <fib+0x2c>
  400148:	00000000 	nop
  40014c:	00001021 	move	v0,zero
  400150:	03c0e821 	move	sp,s8
  400154:	8fbf004c 	lw	ra,76(sp)
  400158:	8fbe0048 	lw	s8,72(sp)
  40015c:	27bd0050 	addiu	sp,sp,80
  400160:	03e00008 	jr	ra
  400164:	00000000 	nop

00400168 <main>:
  400168:	27bdffe8 	addiu	sp,sp,-24
  40016c:	afbf0014 	sw	ra,20(sp)
  400170:	afbe0010 	sw	s8,16(sp)
  400174:	03a0f021 	move	s8,sp
  400178:	3c021000 	lui	v0,0x1000
  40017c:	24440000 	addiu	a0,v0,0
  400180:	0c10000c 	jal	400030 <print>
  400184:	00000000 	nop
  400188:	2404000a 	li	a0,10
  40018c:	0c10002a 	jal	4000a8 <fib>
  400190:	00000000 	nop
  400194:	3c021000 	lui	v0,0x1000
  400198:	24440004 	addiu	a0,v0,4
  40019c:	0c10000c 	jal	400030 <print>
  4001a0:	00000000 	nop
  4001a4:	00001021 	move	v0,zero
  4001a8:	03c0e821 	move	sp,s8
  4001ac:	8fbf0014 	lw	ra,20(sp)
  4001b0:	8fbe0010 	lw	s8,16(sp)
  4001b4:	27bd0018 	addiu	sp,sp,24
  4001b8:	03e00008 	jr	ra
  4001bc:	00000000 	nop

004001c0 <division>:
  4001c0:	27bdfff8 	addiu	sp,sp,-8
  4001c4:	afbe0000 	sw	s8,0(sp)
  4001c8:	03a0f021 	move	s8,sp
  4001cc:	afc40008 	sw	a0,8(s8)
  4001d0:	afc5000c 	sw	a1,12(s8)
  4001d4:	afc60010 	sw	a2,16(s8)
  4001d8:	8fc20010 	lw	v0,16(s8)
  4001dc:	00000000 	nop
  4001e0:	ac400000 	sw	zero,0(v0)
  4001e4:	8fc20008 	lw	v0,8(s8)
  4001e8:	8fc3000c 	lw	v1,12(s8)
  4001ec:	00000000 	nop
  4001f0:	0062102a 	slt	v0,v1,v0
  4001f4:	1040000f 	beqz	v0,400234 <division+0x74>
  4001f8:	00000000 	nop
  4001fc:	8fc30010 	lw	v1,16(s8)
  400200:	8fc20010 	lw	v0,16(s8)
  400204:	00000000 	nop
  400208:	8c420000 	lw	v0,0(v0)
  40020c:	00000000 	nop
  400210:	24420001 	addiu	v0,v0,1
  400214:	ac620000 	sw	v0,0(v1)
  400218:	8fc30008 	lw	v1,8(s8)
  40021c:	8fc2000c 	lw	v0,12(s8)
  400220:	00000000 	nop
  400224:	00621023 	subu	v0,v1,v0
  400228:	afc20008 	sw	v0,8(s8)
  40022c:	08100079 	j	4001e4 <division+0x24>
  400230:	00000000 	nop
  400234:	8fc20008 	lw	v0,8(s8)
  400238:	03c0e821 	move	sp,s8
  40023c:	8fbe0000 	lw	s8,0(sp)
  400240:	27bd0008 	addiu	sp,sp,8
  400244:	03e00008 	jr	ra
  400248:	00000000 	nop

0040024c <strlen>:
  40024c:	27bdfff0 	addiu	sp,sp,-16
  400250:	afbe0008 	sw	s8,8(sp)
  400254:	03a0f021 	move	s8,sp
  400258:	afc40010 	sw	a0,16(s8)
  40025c:	8fc20010 	lw	v0,16(s8)
  400260:	00000000 	nop
  400264:	afc20000 	sw	v0,0(s8)
  400268:	8fc20000 	lw	v0,0(s8)
  40026c:	00000000 	nop
  400270:	80420000 	lb	v0,0(v0)
  400274:	00000000 	nop
  400278:	10400007 	beqz	v0,400298 <strlen+0x4c>
  40027c:	00000000 	nop
  400280:	8fc20000 	lw	v0,0(s8)
  400284:	00000000 	nop
  400288:	24420001 	addiu	v0,v0,1
  40028c:	afc20000 	sw	v0,0(s8)
  400290:	0810009a 	j	400268 <strlen+0x1c>
  400294:	00000000 	nop
  400298:	8fc30000 	lw	v1,0(s8)
  40029c:	8fc20010 	lw	v0,16(s8)
  4002a0:	00000000 	nop
  4002a4:	00621023 	subu	v0,v1,v0
  4002a8:	03c0e821 	move	sp,s8
  4002ac:	8fbe0008 	lw	s8,8(sp)
  4002b0:	27bd0010 	addiu	sp,sp,16
  4002b4:	03e00008 	jr	ra
  4002b8:	00000000 	nop

004002bc <strrev>:
  4002bc:	27bdffe0 	addiu	sp,sp,-32
  4002c0:	afbf001c 	sw	ra,28(sp)
  4002c4:	afbe0018 	sw	s8,24(sp)
  4002c8:	03a0f021 	move	s8,sp
  4002cc:	afc40020 	sw	a0,32(s8)
  4002d0:	8fc20020 	lw	v0,32(s8)
  4002d4:	00000000 	nop
  4002d8:	afc20010 	sw	v0,16(s8)
  4002dc:	8fc40020 	lw	a0,32(s8)
  4002e0:	0c100093 	jal	40024c <strlen>
  4002e4:	00000000 	nop
  4002e8:	00401821 	move	v1,v0
  4002ec:	8fc20020 	lw	v0,32(s8)
  4002f0:	00000000 	nop
  4002f4:	00621021 	addu	v0,v1,v0
  4002f8:	2442ffff 	addiu	v0,v0,-1
  4002fc:	afc20014 	sw	v0,20(s8)
  400300:	8fc20014 	lw	v0,20(s8)
  400304:	8fc30010 	lw	v1,16(s8)
  400308:	00000000 	nop
  40030c:	0062102b 	sltu	v0,v1,v0
  400310:	10400023 	beqz	v0,4003a0 <strrev+0xe4>
  400314:	00000000 	nop
  400318:	8fc50010 	lw	a1,16(s8)
  40031c:	8fc20010 	lw	v0,16(s8)
  400320:	8fc30014 	lw	v1,20(s8)
  400324:	90440000 	lbu	a0,0(v0)
  400328:	90620000 	lbu	v0,0(v1)
  40032c:	00000000 	nop
  400330:	00821026 	xor	v0,a0,v0
  400334:	a0a20000 	sb	v0,0(a1)
  400338:	8fc50014 	lw	a1,20(s8)
  40033c:	8fc20014 	lw	v0,20(s8)
  400340:	8fc30010 	lw	v1,16(s8)
  400344:	90440000 	lbu	a0,0(v0)
  400348:	90620000 	lbu	v0,0(v1)
  40034c:	00000000 	nop
  400350:	00821026 	xor	v0,a0,v0
  400354:	a0a20000 	sb	v0,0(a1)
  400358:	8fc50010 	lw	a1,16(s8)
  40035c:	8fc20010 	lw	v0,16(s8)
  400360:	8fc30014 	lw	v1,20(s8)
  400364:	90440000 	lbu	a0,0(v0)
  400368:	90620000 	lbu	v0,0(v1)
  40036c:	00000000 	nop
  400370:	00821026 	xor	v0,a0,v0
  400374:	a0a20000 	sb	v0,0(a1)
  400378:	8fc20010 	lw	v0,16(s8)
  40037c:	00000000 	nop
  400380:	24420001 	addiu	v0,v0,1
  400384:	afc20010 	sw	v0,16(s8)
  400388:	8fc20014 	lw	v0,20(s8)
  40038c:	00000000 	nop
  400390:	2442ffff 	addiu	v0,v0,-1
  400394:	afc20014 	sw	v0,20(s8)
  400398:	081000c0 	j	400300 <strrev+0x44>
  40039c:	00000000 	nop
  4003a0:	8fc20020 	lw	v0,32(s8)
  4003a4:	03c0e821 	move	sp,s8
  4003a8:	8fbf001c 	lw	ra,28(sp)
  4003ac:	8fbe0018 	lw	s8,24(sp)
  4003b0:	27bd0020 	addiu	sp,sp,32
  4003b4:	03e00008 	jr	ra
  4003b8:	00000000 	nop

004003bc <int_to_string>:
  4003bc:	27bdffc8 	addiu	sp,sp,-56
  4003c0:	afbf0034 	sw	ra,52(sp)
  4003c4:	afbe0030 	sw	s8,48(sp)
  4003c8:	03a0f021 	move	s8,sp
  4003cc:	afc40038 	sw	a0,56(s8)
  4003d0:	afc5003c 	sw	a1,60(s8)
  4003d4:	afc60040 	sw	a2,64(s8)
  4003d8:	24020030 	li	v0,48
  4003dc:	a3c20010 	sb	v0,16(s8)
  4003e0:	24020031 	li	v0,49
  4003e4:	a3c20011 	sb	v0,17(s8)
  4003e8:	24020032 	li	v0,50
  4003ec:	a3c20012 	sb	v0,18(s8)
  4003f0:	24020033 	li	v0,51
  4003f4:	a3c20013 	sb	v0,19(s8)
  4003f8:	24020034 	li	v0,52
  4003fc:	a3c20014 	sb	v0,20(s8)
  400400:	24020035 	li	v0,53
  400404:	a3c20015 	sb	v0,21(s8)
  400408:	24020036 	li	v0,54
  40040c:	a3c20016 	sb	v0,22(s8)
  400410:	24020037 	li	v0,55
  400414:	a3c20017 	sb	v0,23(s8)
  400418:	24020038 	li	v0,56
  40041c:	a3c20018 	sb	v0,24(s8)
  400420:	24020039 	li	v0,57
  400424:	a3c20019 	sb	v0,25(s8)
  400428:	afc00020 	sw	zero,32(s8)
  40042c:	27c50020 	addiu	a1,s8,32
  400430:	8ca30000 	lw	v1,0(a1)
  400434:	00000000 	nop
  400438:	00602021 	move	a0,v1
  40043c:	8fc2003c 	lw	v0,60(s8)
  400440:	00000000 	nop
  400444:	00822021 	addu	a0,a0,v0
  400448:	2402000a 	li	v0,10
  40044c:	a0820000 	sb	v0,0(a0)
  400450:	24630001 	addiu	v1,v1,1
  400454:	aca30000 	sw	v1,0(a1)
  400458:	27c20028 	addiu	v0,s8,40
  40045c:	8fc40038 	lw	a0,56(s8)
  400460:	8fc50040 	lw	a1,64(s8)
  400464:	00403021 	move	a2,v0
  400468:	0c100070 	jal	4001c0 <division>
  40046c:	00000000 	nop
  400470:	afc20024 	sw	v0,36(s8)
  400474:	27c60020 	addiu	a2,s8,32
  400478:	8cc30000 	lw	v1,0(a2)
  40047c:	00000000 	nop
  400480:	00602021 	move	a0,v1
  400484:	8fc2003c 	lw	v0,60(s8)
  400488:	00000000 	nop
  40048c:	00822821 	addu	a1,a0,v0
  400490:	8fc40024 	lw	a0,36(s8)
  400494:	27c20010 	addiu	v0,s8,16
  400498:	00441021 	addu	v0,v0,a0
  40049c:	90420000 	lbu	v0,0(v0)
  4004a0:	00000000 	nop
  4004a4:	a0a20000 	sb	v0,0(a1)
  4004a8:	24630001 	addiu	v1,v1,1
  4004ac:	acc30000 	sw	v1,0(a2)
  4004b0:	8fc20028 	lw	v0,40(s8)
  4004b4:	00000000 	nop
  4004b8:	afc20038 	sw	v0,56(s8)
  4004bc:	8fc20038 	lw	v0,56(s8)
  4004c0:	00000000 	nop
  4004c4:	18400003 	blez	v0,4004d4 <int_to_string+0x118>
  4004c8:	00000000 	nop
  4004cc:	08100116 	j	400458 <int_to_string+0x9c>
  4004d0:	00000000 	nop
  4004d4:	8fc3003c 	lw	v1,60(s8)
  4004d8:	8fc20020 	lw	v0,32(s8)
  4004dc:	00000000 	nop
  4004e0:	00621021 	addu	v0,v1,v0
  4004e4:	a0400000 	sb	zero,0(v0)
  4004e8:	8fc4003c 	lw	a0,60(s8)
  4004ec:	0c1000af 	jal	4002bc <strrev>
  4004f0:	00000000 	nop
  4004f4:	03c0e821 	move	sp,s8
  4004f8:	8fbf0034 	lw	ra,52(sp)
  4004fc:	8fbe0030 	lw	s8,48(sp)
  400500:	27bd0038 	addiu	sp,sp,56
  400504:	03e00008 	jr	ra
  400508:	00000000 	nop

0040050c <runme>:
  40050c:	27bdffe8 	addiu	sp,sp,-24
  400510:	afbf0014 	sw	ra,20(sp)
  400514:	afbe0010 	sw	s8,16(sp)
  400518:	03a0f021 	move	s8,sp
  40051c:	0c10005a 	jal	400168 <main>
  400520:	00000000 	nop
  400524:	03c0e821 	move	sp,s8
  400528:	8fbf0014 	lw	ra,20(sp)
  40052c:	8fbe0010 	lw	s8,16(sp)
  400530:	27bd0018 	addiu	sp,sp,24
  400534:	03e00008 	jr	ra
  400538:	00000000 	nop

0040053c <SendByte>:
  40053c:	27bdfff0 	addiu	sp,sp,-16
  400540:	afbe0008 	sw	s8,8(sp)
  400544:	03a0f021 	move	s8,sp
  400548:	00801021 	move	v0,a0
  40054c:	a3c20010 	sb	v0,16(s8)
  400550:	3c02ffff 	lui	v0,0xffff
  400554:	34420008 	ori	v0,v0,0x8
  400558:	afc20000 	sw	v0,0(s8)
  40055c:	3c02ffff 	lui	v0,0xffff
  400560:	3442000c 	ori	v0,v0,0xc
  400564:	afc20004 	sw	v0,4(s8)
  400568:	8fc20000 	lw	v0,0(s8)
  40056c:	00000000 	nop
  400570:	8c420000 	lw	v0,0(v0)
  400574:	00000000 	nop
  400578:	38420001 	xori	v0,v0,0x1
  40057c:	30420001 	andi	v0,v0,0x1
  400580:	10400003 	beqz	v0,400590 <SendByte+0x54>
  400584:	00000000 	nop
  400588:	0810015a 	j	400568 <SendByte+0x2c>
  40058c:	00000000 	nop
  400590:	8fc30004 	lw	v1,4(s8)
  400594:	83c20010 	lb	v0,16(s8)
  400598:	00000000 	nop
  40059c:	ac620000 	sw	v0,0(v1)
  4005a0:	03c0e821 	move	sp,s8
  4005a4:	8fbe0008 	lw	s8,8(sp)
  4005a8:	27bd0010 	addiu	sp,sp,16
  4005ac:	03e00008 	jr	ra
  4005b0:	00000000 	nop

004005b4 <GetByte>:
  4005b4:	27bdffe8 	addiu	sp,sp,-24
  4005b8:	afbe0010 	sw	s8,16(sp)
  4005bc:	03a0f021 	move	s8,sp
  4005c0:	3c02ffff 	lui	v0,0xffff
  4005c4:	afc20004 	sw	v0,4(s8)
  4005c8:	3c02ffff 	lui	v0,0xffff
  4005cc:	34420004 	ori	v0,v0,0x4
  4005d0:	afc20008 	sw	v0,8(s8)
  4005d4:	8fc20004 	lw	v0,4(s8)
  4005d8:	00000000 	nop
  4005dc:	8c420000 	lw	v0,0(v0)
  4005e0:	00000000 	nop
  4005e4:	38420001 	xori	v0,v0,0x1
  4005e8:	30420001 	andi	v0,v0,0x1
  4005ec:	10400003 	beqz	v0,4005fc <GetByte+0x48>
  4005f0:	00000000 	nop
  4005f4:	08100175 	j	4005d4 <GetByte+0x20>
  4005f8:	00000000 	nop
  4005fc:	8fc20008 	lw	v0,8(s8)
  400600:	00000000 	nop
  400604:	8c420000 	lw	v0,0(v0)
  400608:	00000000 	nop
  40060c:	a3c20000 	sb	v0,0(s8)
  400610:	83c20000 	lb	v0,0(s8)
  400614:	03c0e821 	move	sp,s8
  400618:	8fbe0010 	lw	s8,16(sp)
  40061c:	27bd0018 	addiu	sp,sp,24
  400620:	03e00008 	jr	ra
  400624:	00000000 	nop
	...
Disassembly of section RAM:

10000000 <_gp-0x8010>:
10000000:	00000a53 	0xa53
10000004:	00000a45 	0xa45
	...
