
fib:     file format elf32-tradlittlemips


Disassembly of section IROM:

00400000 <__start>:
  400000:	3c1c1001 	lui	gp,0x1001
  400004:	279c8010 	addiu	gp,gp,-32752
  400008:	3c1d7fff 	lui	sp,0x7fff
  40000c:	37bdfffc 	ori	sp,sp,0xfffc
  400010:	0000d020 	add	k0,zero,zero
  400014:	00001820 	add	v1,zero,zero
  400018:	0c10014e 	jal	400538 <runme>
  40001c:	00000000 	nop

00400020 <__start_loop>:
	...
  400028:	0c100008 	jal	400020 <__start_loop>
  40002c:	00000000 	nop

00400030 <print>:
  400030:	27bdffe8 	addiu	sp,sp,-24
  400034:	afbf0014 	sw	ra,20(sp)
  400038:	afbe0010 	sw	s8,16(sp)
  40003c:	03a0f021 	move	s8,sp
  400040:	afc40018 	sw	a0,24(s8)
  400044:	0810001e 	j	400078 <print+0x48>
  400048:	00000000 	nop
  40004c:	8fc20018 	lw	v0,24(s8)
  400050:	00000000 	nop
  400054:	80420000 	lb	v0,0(v0)
  400058:	00000000 	nop
  40005c:	00402021 	move	a0,v0
  400060:	0c10015a 	jal	400568 <SendByte>
  400064:	00000000 	nop
  400068:	8fc20018 	lw	v0,24(s8)
  40006c:	00000000 	nop
  400070:	24420001 	addiu	v0,v0,1
  400074:	afc20018 	sw	v0,24(s8)
  400078:	8fc20018 	lw	v0,24(s8)
  40007c:	00000000 	nop
  400080:	80420000 	lb	v0,0(v0)
  400084:	00000000 	nop
  400088:	1440fff0 	bnez	v0,40004c <print+0x1c>
  40008c:	00000000 	nop
  400090:	03c0e821 	move	sp,s8
  400094:	8fbf0014 	lw	ra,20(sp)
  400098:	8fbe0010 	lw	s8,16(sp)
  40009c:	27bd0018 	addiu	sp,sp,24
  4000a0:	03e00008 	jr	ra
  4000a4:	00000000 	nop

004000a8 <fib>:
  4000a8:	27bdffb0 	addiu	sp,sp,-80
  4000ac:	afbf004c 	sw	ra,76(sp)
  4000b0:	afbe0048 	sw	s8,72(sp)
  4000b4:	03a0f021 	move	s8,sp
  4000b8:	afc40050 	sw	a0,80(s8)
  4000bc:	afc00020 	sw	zero,32(s8)
  4000c0:	24020001 	li	v0,1
  4000c4:	afc2001c 	sw	v0,28(s8)
  4000c8:	8fc20050 	lw	v0,80(s8)
  4000cc:	00000000 	nop
  4000d0:	afc20014 	sw	v0,20(s8)
  4000d4:	0810004f 	j	40013c <fib+0x94>
  4000d8:	00000000 	nop
  4000dc:	27c20024 	addiu	v0,s8,36
  4000e0:	8fc40020 	lw	a0,32(s8)
  4000e4:	00402821 	move	a1,v0
  4000e8:	2406000a 	li	a2,10
  4000ec:	0c1000fe 	jal	4003f8 <int_to_string>
  4000f0:	00000000 	nop
  4000f4:	00402021 	move	a0,v0
  4000f8:	0c10000c 	jal	400030 <print>
  4000fc:	00000000 	nop
  400100:	8fc30020 	lw	v1,32(s8)
  400104:	8fc2001c 	lw	v0,28(s8)
  400108:	00000000 	nop
  40010c:	00621021 	addu	v0,v1,v0
  400110:	afc20018 	sw	v0,24(s8)
  400114:	8fc2001c 	lw	v0,28(s8)
  400118:	00000000 	nop
  40011c:	afc20020 	sw	v0,32(s8)
  400120:	8fc20018 	lw	v0,24(s8)
  400124:	00000000 	nop
  400128:	afc2001c 	sw	v0,28(s8)
  40012c:	8fc20014 	lw	v0,20(s8)
  400130:	00000000 	nop
  400134:	2442ffff 	addiu	v0,v0,-1
  400138:	afc20014 	sw	v0,20(s8)
  40013c:	8fc20014 	lw	v0,20(s8)
  400140:	00000000 	nop
  400144:	1c40ffe5 	bgtz	v0,4000dc <fib+0x34>
  400148:	00000000 	nop
  40014c:	00001021 	move	v0,zero
  400150:	03c0e821 	move	sp,s8
  400154:	8fbf004c 	lw	ra,76(sp)
  400158:	8fbe0048 	lw	s8,72(sp)
  40015c:	27bd0050 	addiu	sp,sp,80
  400160:	03e00008 	jr	ra
  400164:	00000000 	nop

00400168 <main>:
  400168:	27bdffe8 	addiu	sp,sp,-24
  40016c:	afbf0014 	sw	ra,20(sp)
  400170:	afbe0010 	sw	s8,16(sp)
  400174:	03a0f021 	move	s8,sp
  400178:	3c021000 	lui	v0,0x1000
  40017c:	24440000 	addiu	a0,v0,0
  400180:	0c10000c 	jal	400030 <print>
  400184:	00000000 	nop
  400188:	2404000a 	li	a0,10
  40018c:	0c10002a 	jal	4000a8 <fib>
  400190:	00000000 	nop
  400194:	3c021000 	lui	v0,0x1000
  400198:	24440004 	addiu	a0,v0,4
  40019c:	0c10000c 	jal	400030 <print>
  4001a0:	00000000 	nop
  4001a4:	00001021 	move	v0,zero
  4001a8:	03c0e821 	move	sp,s8
  4001ac:	8fbf0014 	lw	ra,20(sp)
  4001b0:	8fbe0010 	lw	s8,16(sp)
  4001b4:	27bd0018 	addiu	sp,sp,24
  4001b8:	03e00008 	jr	ra
  4001bc:	00000000 	nop

004001c0 <division>:
  4001c0:	27bdfff8 	addiu	sp,sp,-8
  4001c4:	afbe0004 	sw	s8,4(sp)
  4001c8:	03a0f021 	move	s8,sp
  4001cc:	afc40008 	sw	a0,8(s8)
  4001d0:	afc5000c 	sw	a1,12(s8)
  4001d4:	afc60010 	sw	a2,16(s8)
  4001d8:	8fc20010 	lw	v0,16(s8)
  4001dc:	00000000 	nop
  4001e0:	ac400000 	sw	zero,0(v0)
  4001e4:	08100088 	j	400220 <division+0x60>
  4001e8:	00000000 	nop
  4001ec:	8fc20010 	lw	v0,16(s8)
  4001f0:	00000000 	nop
  4001f4:	8c420000 	lw	v0,0(v0)
  4001f8:	00000000 	nop
  4001fc:	24430001 	addiu	v1,v0,1
  400200:	8fc20010 	lw	v0,16(s8)
  400204:	00000000 	nop
  400208:	ac430000 	sw	v1,0(v0)
  40020c:	8fc30008 	lw	v1,8(s8)
  400210:	8fc2000c 	lw	v0,12(s8)
  400214:	00000000 	nop
  400218:	00621023 	subu	v0,v1,v0
  40021c:	afc20008 	sw	v0,8(s8)
  400220:	8fc30008 	lw	v1,8(s8)
  400224:	8fc2000c 	lw	v0,12(s8)
  400228:	00000000 	nop
  40022c:	0043102a 	slt	v0,v0,v1
  400230:	1440ffee 	bnez	v0,4001ec <division+0x2c>
  400234:	00000000 	nop
  400238:	8fc20008 	lw	v0,8(s8)
  40023c:	03c0e821 	move	sp,s8
  400240:	8fbe0004 	lw	s8,4(sp)
  400244:	27bd0008 	addiu	sp,sp,8
  400248:	03e00008 	jr	ra
  40024c:	00000000 	nop

00400250 <strlen>:
  400250:	27bdfff0 	addiu	sp,sp,-16
  400254:	afbe000c 	sw	s8,12(sp)
  400258:	03a0f021 	move	s8,sp
  40025c:	afc40010 	sw	a0,16(s8)
  400260:	8fc20010 	lw	v0,16(s8)
  400264:	00000000 	nop
  400268:	afc20000 	sw	v0,0(s8)
  40026c:	081000a1 	j	400284 <strlen+0x34>
  400270:	00000000 	nop
  400274:	8fc20000 	lw	v0,0(s8)
  400278:	00000000 	nop
  40027c:	24420001 	addiu	v0,v0,1
  400280:	afc20000 	sw	v0,0(s8)
  400284:	8fc20000 	lw	v0,0(s8)
  400288:	00000000 	nop
  40028c:	80420000 	lb	v0,0(v0)
  400290:	00000000 	nop
  400294:	1440fff7 	bnez	v0,400274 <strlen+0x24>
  400298:	00000000 	nop
  40029c:	8fc30000 	lw	v1,0(s8)
  4002a0:	8fc20010 	lw	v0,16(s8)
  4002a4:	00000000 	nop
  4002a8:	00621023 	subu	v0,v1,v0
  4002ac:	03c0e821 	move	sp,s8
  4002b0:	8fbe000c 	lw	s8,12(sp)
  4002b4:	27bd0010 	addiu	sp,sp,16
  4002b8:	03e00008 	jr	ra
  4002bc:	00000000 	nop

004002c0 <strrev>:
  4002c0:	27bdffe0 	addiu	sp,sp,-32
  4002c4:	afbf001c 	sw	ra,28(sp)
  4002c8:	afbe0018 	sw	s8,24(sp)
  4002cc:	03a0f021 	move	s8,sp
  4002d0:	afc40020 	sw	a0,32(s8)
  4002d4:	8fc20020 	lw	v0,32(s8)
  4002d8:	00000000 	nop
  4002dc:	afc20014 	sw	v0,20(s8)
  4002e0:	8fc40020 	lw	a0,32(s8)
  4002e4:	0c100094 	jal	400250 <strlen>
  4002e8:	00000000 	nop
  4002ec:	2442ffff 	addiu	v0,v0,-1
  4002f0:	8fc30020 	lw	v1,32(s8)
  4002f4:	00000000 	nop
  4002f8:	00621021 	addu	v0,v1,v0
  4002fc:	afc20010 	sw	v0,16(s8)
  400300:	081000f1 	j	4003c4 <strrev+0x104>
  400304:	00000000 	nop
  400308:	8fc20014 	lw	v0,20(s8)
  40030c:	00000000 	nop
  400310:	80430000 	lb	v1,0(v0)
  400314:	8fc20010 	lw	v0,16(s8)
  400318:	00000000 	nop
  40031c:	80420000 	lb	v0,0(v0)
  400320:	00000000 	nop
  400324:	00621026 	xor	v0,v1,v0
  400328:	00021e00 	sll	v1,v0,0x18
  40032c:	00031e03 	sra	v1,v1,0x18
  400330:	8fc20014 	lw	v0,20(s8)
  400334:	00000000 	nop
  400338:	a0430000 	sb	v1,0(v0)
  40033c:	8fc20010 	lw	v0,16(s8)
  400340:	00000000 	nop
  400344:	80430000 	lb	v1,0(v0)
  400348:	8fc20014 	lw	v0,20(s8)
  40034c:	00000000 	nop
  400350:	80420000 	lb	v0,0(v0)
  400354:	00000000 	nop
  400358:	00621026 	xor	v0,v1,v0
  40035c:	00021e00 	sll	v1,v0,0x18
  400360:	00031e03 	sra	v1,v1,0x18
  400364:	8fc20010 	lw	v0,16(s8)
  400368:	00000000 	nop
  40036c:	a0430000 	sb	v1,0(v0)
  400370:	8fc20014 	lw	v0,20(s8)
  400374:	00000000 	nop
  400378:	80430000 	lb	v1,0(v0)
  40037c:	8fc20010 	lw	v0,16(s8)
  400380:	00000000 	nop
  400384:	80420000 	lb	v0,0(v0)
  400388:	00000000 	nop
  40038c:	00621026 	xor	v0,v1,v0
  400390:	00021e00 	sll	v1,v0,0x18
  400394:	00031e03 	sra	v1,v1,0x18
  400398:	8fc20014 	lw	v0,20(s8)
  40039c:	00000000 	nop
  4003a0:	a0430000 	sb	v1,0(v0)
  4003a4:	8fc20014 	lw	v0,20(s8)
  4003a8:	00000000 	nop
  4003ac:	24420001 	addiu	v0,v0,1
  4003b0:	afc20014 	sw	v0,20(s8)
  4003b4:	8fc20010 	lw	v0,16(s8)
  4003b8:	00000000 	nop
  4003bc:	2442ffff 	addiu	v0,v0,-1
  4003c0:	afc20010 	sw	v0,16(s8)
  4003c4:	8fc30010 	lw	v1,16(s8)
  4003c8:	8fc20014 	lw	v0,20(s8)
  4003cc:	00000000 	nop
  4003d0:	0043102b 	sltu	v0,v0,v1
  4003d4:	1440ffcc 	bnez	v0,400308 <strrev+0x48>
  4003d8:	00000000 	nop
  4003dc:	8fc20020 	lw	v0,32(s8)
  4003e0:	03c0e821 	move	sp,s8
  4003e4:	8fbf001c 	lw	ra,28(sp)
  4003e8:	8fbe0018 	lw	s8,24(sp)
  4003ec:	27bd0020 	addiu	sp,sp,32
  4003f0:	03e00008 	jr	ra
  4003f4:	00000000 	nop

004003f8 <int_to_string>:
  4003f8:	27bdffd0 	addiu	sp,sp,-48
  4003fc:	afbf002c 	sw	ra,44(sp)
  400400:	afbe0028 	sw	s8,40(sp)
  400404:	03a0f021 	move	s8,sp
  400408:	afc40030 	sw	a0,48(s8)
  40040c:	afc50034 	sw	a1,52(s8)
  400410:	afc60038 	sw	a2,56(s8)
  400414:	24020030 	li	v0,48
  400418:	a3c20018 	sb	v0,24(s8)
  40041c:	24020031 	li	v0,49
  400420:	a3c20019 	sb	v0,25(s8)
  400424:	24020032 	li	v0,50
  400428:	a3c2001a 	sb	v0,26(s8)
  40042c:	24020033 	li	v0,51
  400430:	a3c2001b 	sb	v0,27(s8)
  400434:	24020034 	li	v0,52
  400438:	a3c2001c 	sb	v0,28(s8)
  40043c:	24020035 	li	v0,53
  400440:	a3c2001d 	sb	v0,29(s8)
  400444:	24020036 	li	v0,54
  400448:	a3c2001e 	sb	v0,30(s8)
  40044c:	24020037 	li	v0,55
  400450:	a3c2001f 	sb	v0,31(s8)
  400454:	24020038 	li	v0,56
  400458:	a3c20020 	sb	v0,32(s8)
  40045c:	24020039 	li	v0,57
  400460:	a3c20021 	sb	v0,33(s8)
  400464:	afc00014 	sw	zero,20(s8)
  400468:	8fc20014 	lw	v0,20(s8)
  40046c:	8fc30034 	lw	v1,52(s8)
  400470:	00000000 	nop
  400474:	00621021 	addu	v0,v1,v0
  400478:	2403000a 	li	v1,10
  40047c:	a0430000 	sb	v1,0(v0)
  400480:	8fc20014 	lw	v0,20(s8)
  400484:	00000000 	nop
  400488:	24420001 	addiu	v0,v0,1
  40048c:	afc20014 	sw	v0,20(s8)
  400490:	27c20024 	addiu	v0,s8,36
  400494:	8fc40030 	lw	a0,48(s8)
  400498:	8fc50038 	lw	a1,56(s8)
  40049c:	00403021 	move	a2,v0
  4004a0:	0c100070 	jal	4001c0 <division>
  4004a4:	00000000 	nop
  4004a8:	afc20010 	sw	v0,16(s8)
  4004ac:	8fc20014 	lw	v0,20(s8)
  4004b0:	8fc30034 	lw	v1,52(s8)
  4004b4:	00000000 	nop
  4004b8:	00621021 	addu	v0,v1,v0
  4004bc:	8fc30010 	lw	v1,16(s8)
  4004c0:	27c40010 	addiu	a0,s8,16
  4004c4:	00831821 	addu	v1,a0,v1
  4004c8:	80630008 	lb	v1,8(v1)
  4004cc:	00000000 	nop
  4004d0:	a0430000 	sb	v1,0(v0)
  4004d4:	8fc20014 	lw	v0,20(s8)
  4004d8:	00000000 	nop
  4004dc:	24420001 	addiu	v0,v0,1
  4004e0:	afc20014 	sw	v0,20(s8)
  4004e4:	8fc20024 	lw	v0,36(s8)
  4004e8:	00000000 	nop
  4004ec:	afc20030 	sw	v0,48(s8)
  4004f0:	8fc20030 	lw	v0,48(s8)
  4004f4:	00000000 	nop
  4004f8:	1c40ffe5 	bgtz	v0,400490 <int_to_string+0x98>
  4004fc:	00000000 	nop
  400500:	8fc20014 	lw	v0,20(s8)
  400504:	8fc30034 	lw	v1,52(s8)
  400508:	00000000 	nop
  40050c:	00621021 	addu	v0,v1,v0
  400510:	a0400000 	sb	zero,0(v0)
  400514:	8fc40034 	lw	a0,52(s8)
  400518:	0c1000b0 	jal	4002c0 <strrev>
  40051c:	00000000 	nop
  400520:	03c0e821 	move	sp,s8
  400524:	8fbf002c 	lw	ra,44(sp)
  400528:	8fbe0028 	lw	s8,40(sp)
  40052c:	27bd0030 	addiu	sp,sp,48
  400530:	03e00008 	jr	ra
  400534:	00000000 	nop

00400538 <runme>:
  400538:	27bdffe8 	addiu	sp,sp,-24
  40053c:	afbf0014 	sw	ra,20(sp)
  400540:	afbe0010 	sw	s8,16(sp)
  400544:	03a0f021 	move	s8,sp
  400548:	0c10005a 	jal	400168 <main>
  40054c:	00000000 	nop
  400550:	03c0e821 	move	sp,s8
  400554:	8fbf0014 	lw	ra,20(sp)
  400558:	8fbe0010 	lw	s8,16(sp)
  40055c:	27bd0018 	addiu	sp,sp,24
  400560:	03e00008 	jr	ra
  400564:	00000000 	nop

00400568 <SendByte>:
  400568:	27bdfff0 	addiu	sp,sp,-16
  40056c:	afbe000c 	sw	s8,12(sp)
  400570:	03a0f021 	move	s8,sp
  400574:	00801021 	move	v0,a0
  400578:	a3c20010 	sb	v0,16(s8)
  40057c:	3c02ffff 	lui	v0,0xffff
  400580:	34420008 	ori	v0,v0,0x8
  400584:	afc20004 	sw	v0,4(s8)
  400588:	3c02ffff 	lui	v0,0xffff
  40058c:	3442000c 	ori	v0,v0,0xc
  400590:	afc20000 	sw	v0,0(s8)
  400594:	8fc20004 	lw	v0,4(s8)
  400598:	00000000 	nop
  40059c:	8c420000 	lw	v0,0(v0)
  4005a0:	00000000 	nop
  4005a4:	30420001 	andi	v0,v0,0x1
  4005a8:	1040fffa 	beqz	v0,400594 <SendByte+0x2c>
  4005ac:	00000000 	nop
  4005b0:	83c30010 	lb	v1,16(s8)
  4005b4:	8fc20000 	lw	v0,0(s8)
  4005b8:	00000000 	nop
  4005bc:	ac430000 	sw	v1,0(v0)
  4005c0:	03c0e821 	move	sp,s8
  4005c4:	8fbe000c 	lw	s8,12(sp)
  4005c8:	27bd0010 	addiu	sp,sp,16
  4005cc:	03e00008 	jr	ra
  4005d0:	00000000 	nop

004005d4 <GetByte>:
  4005d4:	27bdffe8 	addiu	sp,sp,-24
  4005d8:	afbe0014 	sw	s8,20(sp)
  4005dc:	03a0f021 	move	s8,sp
  4005e0:	3c02ffff 	lui	v0,0xffff
  4005e4:	afc20004 	sw	v0,4(s8)
  4005e8:	3c02ffff 	lui	v0,0xffff
  4005ec:	34420004 	ori	v0,v0,0x4
  4005f0:	afc20000 	sw	v0,0(s8)
  4005f4:	8fc20004 	lw	v0,4(s8)
  4005f8:	00000000 	nop
  4005fc:	8c420000 	lw	v0,0(v0)
  400600:	00000000 	nop
  400604:	30420001 	andi	v0,v0,0x1
  400608:	1040fffa 	beqz	v0,4005f4 <GetByte+0x20>
  40060c:	00000000 	nop
  400610:	8fc20000 	lw	v0,0(s8)
  400614:	00000000 	nop
  400618:	8c420000 	lw	v0,0(v0)
  40061c:	00000000 	nop
  400620:	a3c20008 	sb	v0,8(s8)
  400624:	83c20008 	lb	v0,8(s8)
  400628:	03c0e821 	move	sp,s8
  40062c:	8fbe0014 	lw	s8,20(sp)
  400630:	27bd0018 	addiu	sp,sp,24
  400634:	03e00008 	jr	ra
  400638:	00000000 	nop
  40063c:	00000000 	nop

Disassembly of section RAM:

10000000 <_gp-0x8010>:
10000000:	00000a53 	0xa53
10000004:	00000a45 	0xa45
	...
